target datalayout = "e-m:e-p270:32:32-p271:32:32-p272:64:64-i64:64-i128:128-f80:128-n8:16:32:64-S128"
target triple = "x86_64-pc-linux-gnu"

%struct.Abc_Ntk_t_ = type { i32, i32, ptr, ptr, ptr, ptr, ptr, ptr, ptr, ptr, ptr, ptr, ptr, [11 x i32], i32, i32, i32, i32, ptr, i32, ptr, ptr, i32, i32, i32, double, i32, %struct.Vec_Int_t_, ptr, ptr, ptr, ptr, ptr, float, i32, ptr, ptr, ptr, ptr, ptr, ptr, ptr, ptr, ptr, ptr, ptr, ptr, ptr, ptr, ptr, ptr, ptr, ptr, ptr, ptr, ptr }
%struct.Vec_Int_t_ = type { i32, i32, ptr }
%struct.Vec_Ptr_t_ = type { i32, i32, ptr }
%struct.Abc_Obj_t_ = type { ptr, ptr, i32, i32, %struct.Vec_Int_t_, %struct.Vec_Int_t_, %union.anon, %union.anon.0 }
%union.anon = type { ptr }
%union.anon.0 = type { ptr }

@.str.50 = private unnamed_addr constant [2 x i8] c"L\00", align 1

; Function Attrs: nounwind uwtable
define internal ptr @Abc_NtkCreateBo(ptr noundef %0) #0 {
  %2 = alloca ptr, align 8
  store ptr %0, ptr %2, align 8
  %3 = load ptr, ptr %2, align 8
  %4 = call ptr @Abc_NtkCreateObj(ptr noundef %3, i32 noundef 5)
  ret ptr %4
}

; Function Attrs: nounwind uwtable
define internal ptr @Abc_NtkCreateLatch(ptr noundef %0) #0 {
  %2 = alloca ptr, align 8
  store ptr %0, ptr %2, align 8
  %3 = load ptr, ptr %2, align 8
  %4 = call ptr @Abc_NtkCreateObj(ptr noundef %3, i32 noundef 8)
  ret ptr %4
}

; Function Attrs: nounwind uwtable
define internal ptr @Abc_NtkCreateBi(ptr noundef %0) #0 {
  %2 = alloca ptr, align 8
  store ptr %0, ptr %2, align 8
  %3 = load ptr, ptr %2, align 8
  %4 = call ptr @Abc_NtkCreateObj(ptr noundef %3, i32 noundef 4)
  ret ptr %4
}

; Function Attrs: nounwind uwtable
define internal ptr @Abc_ObjFanin0(ptr noundef %0) #0 {
  %2 = alloca ptr, align 8
  store ptr %0, ptr %2, align 8
  %3 = load ptr, ptr %2, align 8
  %4 = getelementptr inbounds %struct.Abc_Obj_t_, ptr %3, i32 0, i32 0
  %5 = load ptr, ptr %4, align 8
  %6 = getelementptr inbounds %struct.Abc_Ntk_t_, ptr %5, i32 0, i32 5
  %7 = load ptr, ptr %6, align 8
  %8 = getelementptr inbounds %struct.Vec_Ptr_t_, ptr %7, i32 0, i32 2
  %9 = load ptr, ptr %8, align 8
  %10 = load ptr, ptr %2, align 8
  %11 = getelementptr inbounds %struct.Abc_Obj_t_, ptr %10, i32 0, i32 4
  %12 = getelementptr inbounds %struct.Vec_Int_t_, ptr %11, i32 0, i32 2
  %13 = load ptr, ptr %12, align 8
  %14 = getelementptr inbounds i32, ptr %13, i64 0
  %15 = load i32, ptr %14, align 4
  %16 = sext i32 %15 to i64
  %17 = getelementptr inbounds ptr, ptr %9, i64 %16
  %18 = load ptr, ptr %17, align 8
  ret ptr %18
}

; Function Attrs: nounwind uwtable
define internal void @Abc_LatchSetInit0(ptr noundef %0) #0 {
  %2 = alloca ptr, align 8
  store ptr %0, ptr %2, align 8
  %3 = load ptr, ptr %2, align 8
  %4 = getelementptr inbounds %struct.Abc_Obj_t_, ptr %3, i32 0, i32 6
  %5 = inttoptr i64 1 to ptr
  store ptr %5, ptr %4, align 8
  ret void
}

; Function Attrs: nounwind uwtable
define ptr @Io_ReadCreateLatch(ptr noundef %0, ptr noundef %1, ptr noundef %2) #0 {
  %4 = alloca ptr, align 8
  %5 = alloca ptr, align 8
  %6 = alloca ptr, align 8
  %7 = alloca ptr, align 8
  %8 = alloca ptr, align 8
  %9 = alloca ptr, align 8
  store ptr %0, ptr %4, align 8
  store ptr %1, ptr %5, align 8
  store ptr %2, ptr %6, align 8
  %10 = load ptr, ptr %4, align 8
  %11 = load ptr, ptr %5, align 8
  %12 = call ptr @Abc_NtkFindOrCreateNet(ptr noundef %10, ptr noundef %11)
  store ptr %12, ptr %9, align 8
  %13 = load ptr, ptr %4, align 8
  %14 = call ptr @Abc_NtkCreateBi(ptr noundef %13)
  store ptr %14, ptr %8, align 8
  %15 = load ptr, ptr %8, align 8
  %16 = load ptr, ptr %9, align 8
  call void @Abc_ObjAddFanin(ptr noundef %15, ptr noundef %16)
  %17 = load ptr, ptr %4, align 8
  %18 = call ptr @Abc_NtkCreateLatch(ptr noundef %17)
  store ptr %18, ptr %7, align 8
  %19 = load ptr, ptr %7, align 8
  %20 = load ptr, ptr %8, align 8
  call void @Abc_ObjAddFanin(ptr noundef %19, ptr noundef %20)
  %21 = load ptr, ptr %4, align 8
  %22 = call ptr @Abc_NtkCreateBo(ptr noundef %21)
  store ptr %22, ptr %8, align 8
  %23 = load ptr, ptr %8, align 8
  %24 = load ptr, ptr %7, align 8
  call void @Abc_ObjAddFanin(ptr noundef %23, ptr noundef %24)
  %25 = load ptr, ptr %4, align 8
  %26 = load ptr, ptr %6, align 8
  %27 = call ptr @Abc_NtkFindOrCreateNet(ptr noundef %25, ptr noundef %26)
  store ptr %27, ptr %9, align 8
  %28 = load ptr, ptr %9, align 8
  %29 = load ptr, ptr %8, align 8
  call void @Abc_ObjAddFanin(ptr noundef %28, ptr noundef %29)
  %30 = load ptr, ptr %7, align 8
  %31 = load ptr, ptr %6, align 8
  %32 = call ptr @Abc_ObjAssignName(ptr noundef %30, ptr noundef %31, ptr noundef @.str.50)
  %33 = load ptr, ptr %7, align 8
  ret ptr %33
}

; Function Attrs: nounwind uwtable
define internal ptr @Abc_NtkCreateNet(ptr noundef %0) #0 {
  %2 = alloca ptr, align 8
  store ptr %0, ptr %2, align 8
  %3 = load ptr, ptr %2, align 8
  %4 = call ptr @Abc_NtkCreateObj(ptr noundef %3, i32 noundef 6)
  ret ptr %4
}

; Function Attrs: nounwind uwtable
define ptr @Io_ReadCreateResetLatch(ptr noundef %0, i32 noundef %1) #0 {
  %3 = alloca ptr, align 8
  %4 = alloca i32, align 4
  %5 = alloca ptr, align 8
  %6 = alloca ptr, align 8
  %7 = alloca ptr, align 8
  %8 = alloca ptr, align 8
  store ptr %0, ptr %3, align 8
  store i32 %1, ptr %4, align 4
  %9 = load ptr, ptr %3, align 8
  %10 = call ptr @Abc_NtkCreateNet(ptr noundef %9)
  store ptr %10, ptr %7, align 8
  %11 = load ptr, ptr %3, align 8
  %12 = call ptr @Abc_NtkCreateNet(ptr noundef %11)
  store ptr %12, ptr %8, align 8
  %13 = load ptr, ptr %7, align 8
  %14 = load ptr, ptr %7, align 8
  %15 = call ptr @Abc_ObjName(ptr noundef %14)
  %16 = call ptr @Abc_ObjAssignName(ptr noundef %13, ptr noundef %15, ptr noundef null)
  %17 = load ptr, ptr %8, align 8
  %18 = load ptr, ptr %8, align 8
  %19 = call ptr @Abc_ObjName(ptr noundef %18)
  %20 = call ptr @Abc_ObjAssignName(ptr noundef %17, ptr noundef %19, ptr noundef null)
  %21 = load ptr, ptr %3, align 8
  %22 = load ptr, ptr %7, align 8
  %23 = call ptr @Abc_ObjName(ptr noundef %22)
  %24 = load ptr, ptr %8, align 8
  %25 = call ptr @Abc_ObjName(ptr noundef %24)
  %26 = call ptr @Io_ReadCreateLatch(ptr noundef %21, ptr noundef %23, ptr noundef %25)
  store ptr %26, ptr %5, align 8
  %27 = load ptr, ptr %5, align 8
  call void @Abc_LatchSetInit0(ptr noundef %27)
  %28 = load ptr, ptr %3, align 8
  %29 = call ptr @Abc_NtkCreateNodeConst1(ptr noundef %28)
  store ptr %29, ptr %6, align 8
  %30 = load ptr, ptr %5, align 8
  %31 = call ptr @Abc_ObjFanin0(ptr noundef %30)
  %32 = call ptr @Abc_ObjFanin0(ptr noundef %31)
  %33 = load ptr, ptr %6, align 8
  call void @Abc_ObjAddFanin(ptr noundef %32, ptr noundef %33)
  %34 = load ptr, ptr %5, align 8
  ret ptr %34
}