; Function Attrs: nounwind uwtable
define noundef ptr @Io_ReadCreateResetLatch(ptr noundef %0, i32 noundef %1) local_unnamed_addr #0 {
  %3 = tail call ptr @Abc_NtkCreateObj(ptr noundef %0, i32 noundef 6) #14
  %4 = tail call ptr @Abc_NtkCreateObj(ptr noundef %0, i32 noundef 6) #14
  %5 = tail call ptr @Abc_ObjName(ptr noundef %3) #14
  %6 = tail call ptr @Abc_ObjAssignName(ptr noundef %3, ptr noundef %5, ptr noundef null) #14
  %7 = tail call ptr @Abc_ObjName(ptr noundef %4) #14
  %8 = tail call ptr @Abc_ObjAssignName(ptr noundef %4, ptr noundef %7, ptr noundef null) #14
  %9 = tail call ptr @Abc_ObjName(ptr noundef %3) #14
  %10 = tail call ptr @Abc_ObjName(ptr noundef %4) #14
  %11 = tail call ptr @Abc_NtkFindOrCreateNet(ptr noundef %0, ptr noundef %9) #14
  %12 = tail call ptr @Abc_NtkCreateObj(ptr noundef %0, i32 noundef 4) #14
  tail call void @Abc_ObjAddFanin(ptr noundef %12, ptr noundef %11) #14
  %13 = tail call ptr @Abc_NtkCreateObj(ptr noundef %0, i32 noundef 8) #14
  tail call void @Abc_ObjAddFanin(ptr noundef %13, ptr noundef %12) #14
  %14 = tail call ptr @Abc_NtkCreateObj(ptr noundef %0, i32 noundef 5) #14
  tail call void @Abc_ObjAddFanin(ptr noundef %14, ptr noundef %13) #14
  %15 = tail call ptr @Abc_NtkFindOrCreateNet(ptr noundef %0, ptr noundef %10) #14
  tail call void @Abc_ObjAddFanin(ptr noundef %15, ptr noundef %14) #14
  %16 = tail call ptr @Abc_ObjAssignName(ptr noundef %13, ptr noundef %10, ptr noundef nonnull @.str.50) #14
  %17 = getelementptr inbounds nuw i8, ptr %13, i64 56
  store ptr inttoptr (i64 1 to ptr), ptr %17, align 8
  %18 = tail call ptr @Abc_NtkCreateNodeConst1(ptr noundef %0) #14
  %.val = load ptr, ptr %13, align 8
  %19 = getelementptr i8, ptr %13, i64 32
  %.val14 = load ptr, ptr %19, align 8
  %20 = getelementptr i8, ptr %.val, i64 32
  %.val.val = load ptr, ptr %20, align 8
  %.val14.val = load i32, ptr %.val14, align 4
  %21 = getelementptr i8, ptr %.val.val, i64 8
  %.val.val.val = load ptr, ptr %21, align 8
  %22 = sext i32 %.val14.val to i64
  %23 = getelementptr inbounds ptr, ptr %.val.val.val, i64 %22
  %24 = load ptr, ptr %23, align 8
  %.val15 = load ptr, ptr %24, align 8
  %25 = getelementptr i8, ptr %24, i64 32
  %.val16 = load ptr, ptr %25, align 8
  %26 = getelementptr i8, ptr %.val15, i64 32
  %.val15.val = load ptr, ptr %26, align 8
  %.val16.val = load i32, ptr %.val16, align 4
  %27 = getelementptr i8, ptr %.val15.val, i64 8
  %.val15.val.val = load ptr, ptr %27, align 8
  %28 = sext i32 %.val16.val to i64
  %29 = getelementptr inbounds ptr, ptr %.val15.val.val, i64 %28
  %30 = load ptr, ptr %29, align 8
  tail call void @Abc_ObjAddFanin(ptr noundef %30, ptr noundef %18) #14
  ret ptr %13
}